target datalayout = "e-m:e-p270:32:32-p271:32:32-p272:64:64-i64:64-i128:128-f80:128-n8:16:32:64-S128"
target triple = "x86_64-pc-linux-gnu"

%struct.__loadu_ps = type { <4 x float> }
%struct.stbir__contributors = type { i32, i32 }
%struct.__mm_store_ss_struct = type { float }

; Function Attrs: alwaysinline nounwind uwtable
define available_externally void @_mm_store_ss(ptr noundef %0, <4 x float> noundef %1) #2 {
  %3 = alloca ptr, align 8
  %4 = alloca <4 x float>, align 16
  store ptr %0, ptr %3, align 8, !tbaa !21
  store <4 x float> %1, ptr %4, align 16, !tbaa !12
  %5 = load <4 x float>, ptr %4, align 16, !tbaa !12
  %6 = extractelement <4 x float> %5, i32 0
  %7 = load ptr, ptr %3, align 8, !tbaa !21
  %8 = getelementptr inbounds nuw %struct.__mm_store_ss_struct, ptr %7, i32 0, i32 0
  store float %6, ptr %8, align 1, !tbaa !12
  ret void
}

; Function Attrs: alwaysinline nounwind uwtable
define available_externally <4 x float> @_mm_add_ss(<4 x float> noundef %0, <4 x float> noundef %1) #2 {
  %3 = alloca <4 x float>, align 16
  %4 = alloca <4 x float>, align 16
  store <4 x float> %0, ptr %3, align 16, !tbaa !12
  store <4 x float> %1, ptr %4, align 16, !tbaa !12
  %5 = load <4 x float>, ptr %4, align 16, !tbaa !12
  %6 = extractelement <4 x float> %5, i32 0
  %7 = load <4 x float>, ptr %3, align 16
  %8 = extractelement <4 x float> %7, i32 0
  %9 = fadd float %8, %6
  %10 = load <4 x float>, ptr %3, align 16
  %11 = insertelement <4 x float> %10, float %9, i32 0
  store <4 x float> %11, ptr %3, align 16
  %12 = load <4 x float>, ptr %3, align 16, !tbaa !12
  ret <4 x float> %12
}

; Function Attrs: alwaysinline nounwind uwtable
define available_externally <4 x float> @_mm_castsi128_ps(<2 x i64> noundef %0) #2 {
  %2 = alloca <2 x i64>, align 16
  store <2 x i64> %0, ptr %2, align 16, !tbaa !12
  %3 = load <2 x i64>, ptr %2, align 16, !tbaa !12
  %4 = bitcast <2 x i64> %3 to <4 x float>
  ret <4 x float> %4
}

; Function Attrs: alwaysinline nounwind uwtable
define available_externally <2 x i64> @_mm_castps_si128(<4 x float> noundef %0) #2 {
  %2 = alloca <4 x float>, align 16
  store <4 x float> %0, ptr %2, align 16, !tbaa !12
  %3 = load <4 x float>, ptr %2, align 16, !tbaa !12
  %4 = bitcast <4 x float> %3 to <2 x i64>
  ret <2 x i64> %4
}

; Function Attrs: alwaysinline nounwind uwtable
define available_externally <4 x float> @_mm_add_ps(<4 x float> noundef %0, <4 x float> noundef %1) #2 {
  %3 = alloca <4 x float>, align 16
  %4 = alloca <4 x float>, align 16
  store <4 x float> %0, ptr %3, align 16, !tbaa !12
  store <4 x float> %1, ptr %4, align 16, !tbaa !12
  %5 = load <4 x float>, ptr %3, align 16, !tbaa !12
  %6 = load <4 x float>, ptr %4, align 16, !tbaa !12
  %7 = fadd <4 x float> %5, %6
  ret <4 x float> %7
}

; Function Attrs: alwaysinline nounwind uwtable
define available_externally <4 x float> @_mm_mul_ps(<4 x float> noundef %0, <4 x float> noundef %1) #2 {
  %3 = alloca <4 x float>, align 16
  %4 = alloca <4 x float>, align 16
  store <4 x float> %0, ptr %3, align 16, !tbaa !12
  store <4 x float> %1, ptr %4, align 16, !tbaa !12
  %5 = load <4 x float>, ptr %3, align 16, !tbaa !12
  %6 = load <4 x float>, ptr %4, align 16, !tbaa !12
  %7 = fmul <4 x float> %5, %6
  ret <4 x float> %7
}

; Function Attrs: alwaysinline nounwind uwtable
define available_externally <4 x float> @_mm_loadu_ps(ptr noundef %0) #2 {
  %2 = alloca ptr, align 8
  store ptr %0, ptr %2, align 8, !tbaa !21
  %3 = load ptr, ptr %2, align 8, !tbaa !21
  %4 = getelementptr inbounds nuw %struct.__loadu_ps, ptr %3, i32 0, i32 0
  %5 = load <4 x float>, ptr %4, align 1, !tbaa !12
  ret <4 x float> %5
}

; Function Attrs: nounwind uwtable
define void @stbir__horizontal_gather_1_channels_with_12_coeffs(ptr noundef %0, i32 noundef %1, ptr noundef %2, ptr noundef %3, ptr noundef %4, i32 noundef %5) #0 {
  %7 = alloca ptr, align 8
  %8 = alloca i32, align 4
  %9 = alloca ptr, align 8
  %10 = alloca ptr, align 8
  %11 = alloca ptr, align 8
  %12 = alloca i32, align 4
  %13 = alloca ptr, align 8
  %14 = alloca ptr, align 8
  %15 = alloca ptr, align 8
  %16 = alloca ptr, align 8
  %17 = alloca <4 x float>, align 16
  %18 = alloca <4 x float>, align 16
  store ptr %0, ptr %7, align 8, !tbaa !21
  store i32 %1, ptr %8, align 4, !tbaa !26
  store ptr %2, ptr %9, align 8, !tbaa !21
  store ptr %3, ptr %10, align 8, !tbaa !3
  store ptr %4, ptr %11, align 8, !tbaa !21
  store i32 %5, ptr %12, align 4, !tbaa !26
  call void @llvm.lifetime.start.p0(i64 8, ptr %13) #12
  %19 = load ptr, ptr %7, align 8, !tbaa !21
  %20 = load i32, ptr %8, align 4, !tbaa !26
  %21 = mul i32 %20, 1
  %22 = zext i32 %21 to i64
  %23 = getelementptr inbounds nuw float, ptr %19, i64 %22
  store ptr %23, ptr %13, align 8, !tbaa !21
  call void @llvm.lifetime.start.p0(i64 8, ptr %14) #12
  %24 = load ptr, ptr %7, align 8, !tbaa !21
  store ptr %24, ptr %14, align 8, !tbaa !21
  br label %25

25:                                               ; preds = %91, %6
  call void @llvm.lifetime.start.p0(i64 8, ptr %15) #12
  %26 = load ptr, ptr %9, align 8, !tbaa !21
  %27 = load ptr, ptr %10, align 8, !tbaa !3
  %28 = getelementptr inbounds nuw %struct.stbir__contributors, ptr %27, i32 0, i32 0
  %29 = load i32, ptr %28, align 4, !tbaa !41
  %30 = mul nsw i32 %29, 1
  %31 = sext i32 %30 to i64
  %32 = getelementptr inbounds float, ptr %26, i64 %31
  store ptr %32, ptr %15, align 8, !tbaa !21
  call void @llvm.lifetime.start.p0(i64 8, ptr %16) #12
  %33 = load ptr, ptr %11, align 8, !tbaa !21
  store ptr %33, ptr %16, align 8, !tbaa !21
  call void @llvm.lifetime.start.p0(i64 16, ptr %17) #12
  call void @llvm.lifetime.start.p0(i64 16, ptr %18) #12
  %34 = load ptr, ptr %15, align 8, !tbaa !21
  call void asm sideeffect "", "r,~{dirflag},~{fpsr},~{flags}"(ptr %34) #12, !srcloc !565
  %35 = load ptr, ptr %16, align 8, !tbaa !21
  %36 = call <4 x float> @_mm_loadu_ps(ptr noundef %35)
  store <4 x float> %36, ptr %18, align 16, !tbaa !12
  %37 = load <4 x float>, ptr %18, align 16, !tbaa !12
  %38 = load ptr, ptr %15, align 8, !tbaa !21
  %39 = call <4 x float> @_mm_loadu_ps(ptr noundef %38)
  %40 = call <4 x float> @_mm_mul_ps(<4 x float> noundef %37, <4 x float> noundef %39)
  store <4 x float> %40, ptr %17, align 16, !tbaa !12
  %41 = load ptr, ptr %15, align 8, !tbaa !21
  call void asm sideeffect "", "r,~{dirflag},~{fpsr},~{flags}"(ptr %41) #12, !srcloc !566
  %42 = load ptr, ptr %16, align 8, !tbaa !21
  %43 = getelementptr inbounds float, ptr %42, i64 4
  %44 = call <4 x float> @_mm_loadu_ps(ptr noundef %43)
  store <4 x float> %44, ptr %18, align 16, !tbaa !12
  %45 = load <4 x float>, ptr %17, align 16, !tbaa !12
  %46 = load <4 x float>, ptr %18, align 16, !tbaa !12
  %47 = load ptr, ptr %15, align 8, !tbaa !21
  %48 = getelementptr inbounds float, ptr %47, i64 4
  %49 = call <4 x float> @_mm_loadu_ps(ptr noundef %48)
  %50 = call <4 x float> @_mm_mul_ps(<4 x float> noundef %46, <4 x float> noundef %49)
  %51 = call <4 x float> @_mm_add_ps(<4 x float> noundef %45, <4 x float> noundef %50)
  store <4 x float> %51, ptr %17, align 16, !tbaa !12
  %52 = load ptr, ptr %15, align 8, !tbaa !21
  call void asm sideeffect "", "r,~{dirflag},~{fpsr},~{flags}"(ptr %52) #12, !srcloc !567
  %53 = load ptr, ptr %16, align 8, !tbaa !21
  %54 = getelementptr inbounds float, ptr %53, i64 8
  %55 = call <4 x float> @_mm_loadu_ps(ptr noundef %54)
  store <4 x float> %55, ptr %18, align 16, !tbaa !12
  %56 = load <4 x float>, ptr %17, align 16, !tbaa !12
  %57 = load <4 x float>, ptr %18, align 16, !tbaa !12
  %58 = load ptr, ptr %15, align 8, !tbaa !21
  %59 = getelementptr inbounds float, ptr %58, i64 8
  %60 = call <4 x float> @_mm_loadu_ps(ptr noundef %59)
  %61 = call <4 x float> @_mm_mul_ps(<4 x float> noundef %57, <4 x float> noundef %60)
  %62 = call <4 x float> @_mm_add_ps(<4 x float> noundef %56, <4 x float> noundef %61)
  store <4 x float> %62, ptr %17, align 16, !tbaa !12
  %63 = load <4 x float>, ptr %17, align 16, !tbaa !12
  %64 = call <2 x i64> @_mm_castps_si128(<4 x float> noundef %63)
  %65 = bitcast <2 x i64> %64 to <4 x i32>
  %66 = shufflevector <4 x i32> %65, <4 x i32> poison, <4 x i32> <i32 2, i32 3, i32 0, i32 1>
  %67 = bitcast <4 x i32> %66 to <2 x i64>
  %68 = call <4 x float> @_mm_castsi128_ps(<2 x i64> noundef %67)
  store <4 x float> %68, ptr %18, align 16, !tbaa !12
  %69 = load <4 x float>, ptr %17, align 16, !tbaa !12
  %70 = load <4 x float>, ptr %18, align 16, !tbaa !12
  %71 = call <4 x float> @_mm_add_ps(<4 x float> noundef %69, <4 x float> noundef %70)
  store <4 x float> %71, ptr %17, align 16, !tbaa !12
  %72 = load <4 x float>, ptr %17, align 16, !tbaa !12
  %73 = call <2 x i64> @_mm_castps_si128(<4 x float> noundef %72)
  %74 = bitcast <2 x i64> %73 to <4 x i32>
  %75 = shufflevector <4 x i32> %74, <4 x i32> poison, <4 x i32> <i32 1, i32 2, i32 3, i32 0>
  %76 = bitcast <4 x i32> %75 to <2 x i64>
  %77 = call <4 x float> @_mm_castsi128_ps(<2 x i64> noundef %76)
  store <4 x float> %77, ptr %18, align 16, !tbaa !12
  %78 = load <4 x float>, ptr %17, align 16, !tbaa !12
  %79 = load <4 x float>, ptr %18, align 16, !tbaa !12
  %80 = call <4 x float> @_mm_add_ss(<4 x float> noundef %78, <4 x float> noundef %79)
  store <4 x float> %80, ptr %17, align 16, !tbaa !12
  %81 = load ptr, ptr %14, align 8, !tbaa !21
  %82 = load <4 x float>, ptr %17, align 16, !tbaa !12
  call void @_mm_store_ss(ptr noundef %81, <4 x float> noundef %82)
  %83 = load i32, ptr %12, align 4, !tbaa !26
  %84 = load ptr, ptr %11, align 8, !tbaa !21
  %85 = sext i32 %83 to i64
  %86 = getelementptr inbounds float, ptr %84, i64 %85
  store ptr %86, ptr %11, align 8, !tbaa !21
  %87 = load ptr, ptr %10, align 8, !tbaa !3
  %88 = getelementptr inbounds nuw %struct.stbir__contributors, ptr %87, i32 1
  store ptr %88, ptr %10, align 8, !tbaa !3
  %89 = load ptr, ptr %14, align 8, !tbaa !21
  %90 = getelementptr inbounds float, ptr %89, i64 1
  store ptr %90, ptr %14, align 8, !tbaa !21
  call void @llvm.lifetime.end.p0(i64 16, ptr %18) #12
  call void @llvm.lifetime.end.p0(i64 16, ptr %17) #12
  call void @llvm.lifetime.end.p0(i64 8, ptr %16) #12
  call void @llvm.lifetime.end.p0(i64 8, ptr %15) #12
  br label %91

91:                                               ; preds = %25
  %92 = load ptr, ptr %14, align 8, !tbaa !21
  %93 = load ptr, ptr %13, align 8, !tbaa !21
  %94 = icmp ult ptr %92, %93
  br i1 %94, label %25, label %95, !llvm.loop !568

95:                                               ; preds = %91
  call void @llvm.lifetime.end.p0(i64 8, ptr %14) #12
  call void @llvm.lifetime.end.p0(i64 8, ptr %13) #12
  ret void
}