; Function Attrs: nounwind uwtable
define void @stbir__horizontal_gather_1_channels_with_12_coeffs(ptr noundef writeonly captures(address) %0, i32 noundef %1, ptr noundef %2, ptr noundef readonly captures(none) %3, ptr noundef readonly captures(none) %4, i32 noundef %5) #0 {
  %7 = zext i32 %1 to i64
  %8 = getelementptr inbounds nuw float, ptr %0, i64 %7
  %9 = sext i32 %5 to i64
  br label %10

10:                                               ; preds = %10, %6
  %.034 = phi ptr [ %0, %6 ], [ %35, %10 ]
  %.033 = phi ptr [ %4, %6 ], [ %33, %10 ]
  %.0 = phi ptr [ %3, %6 ], [ %34, %10 ]
  %11 = load i32, ptr %.0, align 4, !tbaa !34
  %12 = sext i32 %11 to i64
  %13 = getelementptr inbounds float, ptr %2, i64 %12
  tail call void asm sideeffect "", "r,~{dirflag},~{fpsr},~{flags}"(ptr %13) #24, !srcloc !489
  %14 = load <4 x float>, ptr %.033, align 1, !tbaa !4
  %15 = load <4 x float>, ptr %13, align 1, !tbaa !4
  %16 = fmul <4 x float> %14, %15
  tail call void asm sideeffect "", "r,~{dirflag},~{fpsr},~{flags}"(ptr nonnull %13) #24, !srcloc !490
  %17 = getelementptr inbounds nuw i8, ptr %.033, i64 16
  %18 = load <4 x float>, ptr %17, align 1, !tbaa !4
  %19 = getelementptr inbounds nuw i8, ptr %13, i64 16
  %20 = load <4 x float>, ptr %19, align 1, !tbaa !4
  %21 = fmul <4 x float> %18, %20
  %22 = fadd <4 x float> %16, %21
  tail call void asm sideeffect "", "r,~{dirflag},~{fpsr},~{flags}"(ptr nonnull %13) #24, !srcloc !491
  %23 = getelementptr inbounds nuw i8, ptr %.033, i64 32
  %24 = load <4 x float>, ptr %23, align 1, !tbaa !4
  %25 = getelementptr inbounds nuw i8, ptr %13, i64 32
  %26 = load <4 x float>, ptr %25, align 1, !tbaa !4
  %27 = fmul <4 x float> %24, %26
  %28 = fadd <4 x float> %22, %27
  %29 = shufflevector <4 x float> %28, <4 x float> poison, <4 x i32> <i32 2, i32 3, i32 poison, i32 poison>
  %30 = fadd <4 x float> %28, %29
  %shift = shufflevector <4 x float> %30, <4 x float> poison, <4 x i32> <i32 1, i32 poison, i32 poison, i32 poison>
  %31 = fadd <4 x float> %30, %shift
  %32 = extractelement <4 x float> %31, i64 0
  store float %32, ptr %.034, align 1, !tbaa !4
  %33 = getelementptr inbounds float, ptr %.033, i64 %9
  %34 = getelementptr inbounds nuw i8, ptr %.0, i64 8
  %35 = getelementptr inbounds nuw i8, ptr %.034, i64 4
  %36 = icmp ult ptr %35, %8
  br i1 %36, label %10, label %37, !llvm.loop !492

37:                                               ; preds = %10
  ret void
}